target datalayout = "e-m:e-p270:32:32-p271:32:32-p272:64:64-i64:64-i128:128-f80:128-n8:16:32:64-S128"
target triple = "x86_64-pc-linux-gnu"

%struct.jpeg_common_struct = type { ptr, ptr, ptr, ptr, i32, i32 }
%struct.jpeg_error_mgr = type { ptr, ptr, ptr, ptr, ptr, i32, %union.anon, i32, i64, ptr, i32, ptr, i32, i32 }
%union.anon = type { [8 x i32], [48 x i8] }
%struct.my_memory_mgr = type { %struct.jpeg_memory_mgr, [2 x ptr], [2 x ptr], ptr, ptr, i64, i32 }
%struct.jpeg_memory_mgr = type { ptr, ptr, ptr, ptr, ptr, ptr, ptr, ptr, ptr, ptr, ptr, i64, i64 }
%struct.anon.0 = type { ptr, i64, i64 }
%union.large_pool_struct = type { %struct.anon.0 }

; Function Attrs: nounwind uwtable
define internal void @out_of_memory(ptr noundef %0, i32 noundef %1) #0 {
  %3 = alloca ptr, align 8
  %4 = alloca i32, align 4
  store ptr %0, ptr %3, align 8
  store i32 %1, ptr %4, align 4
  %5 = load ptr, ptr %3, align 8
  %6 = getelementptr inbounds %struct.jpeg_common_struct, ptr %5, i32 0, i32 0
  %7 = load ptr, ptr %6, align 8
  %8 = getelementptr inbounds %struct.jpeg_error_mgr, ptr %7, i32 0, i32 5
  store i32 54, ptr %8, align 8
  %9 = load i32, ptr %4, align 4
  %10 = load ptr, ptr %3, align 8
  %11 = getelementptr inbounds %struct.jpeg_common_struct, ptr %10, i32 0, i32 0
  %12 = load ptr, ptr %11, align 8
  %13 = getelementptr inbounds %struct.jpeg_error_mgr, ptr %12, i32 0, i32 6
  %14 = getelementptr inbounds [8 x i32], ptr %13, i64 0, i64 0
  store i32 %9, ptr %14, align 4
  %15 = load ptr, ptr %3, align 8
  %16 = getelementptr inbounds %struct.jpeg_common_struct, ptr %15, i32 0, i32 0
  %17 = load ptr, ptr %16, align 8
  %18 = getelementptr inbounds %struct.jpeg_error_mgr, ptr %17, i32 0, i32 0
  %19 = load ptr, ptr %18, align 8
  %20 = load ptr, ptr %3, align 8
  call void %19(ptr noundef %20)
  ret void
}

; Function Attrs: nounwind uwtable
define internal ptr @alloc_large(ptr noundef %0, i32 noundef %1, i64 noundef %2) #0 {
  %4 = alloca ptr, align 8
  %5 = alloca i32, align 4
  %6 = alloca i64, align 8
  %7 = alloca ptr, align 8
  %8 = alloca ptr, align 8
  %9 = alloca i64, align 8
  store ptr %0, ptr %4, align 8
  store i32 %1, ptr %5, align 4
  store i64 %2, ptr %6, align 8
  %10 = load ptr, ptr %4, align 8
  %11 = getelementptr inbounds %struct.jpeg_common_struct, ptr %10, i32 0, i32 1
  %12 = load ptr, ptr %11, align 8
  store ptr %12, ptr %7, align 8
  %13 = load i64, ptr %6, align 8
  %14 = icmp ugt i64 %13, 999999976
  br i1 %14, label %15, label %17

15:                                               ; preds = %3
  %16 = load ptr, ptr %4, align 8
  call void @out_of_memory(ptr noundef %16, i32 noundef 3)
  br label %17

17:                                               ; preds = %15, %3
  %18 = load i64, ptr %6, align 8
  %19 = urem i64 %18, 8
  store i64 %19, ptr %9, align 8
  %20 = load i64, ptr %9, align 8
  %21 = icmp ugt i64 %20, 0
  br i1 %21, label %22, label %27

22:                                               ; preds = %17
  %23 = load i64, ptr %9, align 8
  %24 = sub i64 8, %23
  %25 = load i64, ptr %6, align 8
  %26 = add i64 %25, %24
  store i64 %26, ptr %6, align 8
  br label %27

27:                                               ; preds = %22, %17
  %28 = load i32, ptr %5, align 4
  %29 = icmp slt i32 %28, 0
  br i1 %29, label %33, label %30

30:                                               ; preds = %27
  %31 = load i32, ptr %5, align 4
  %32 = icmp sge i32 %31, 2
  br i1 %32, label %33, label %50

33:                                               ; preds = %30, %27
  %34 = load ptr, ptr %4, align 8
  %35 = getelementptr inbounds %struct.jpeg_common_struct, ptr %34, i32 0, i32 0
  %36 = load ptr, ptr %35, align 8
  %37 = getelementptr inbounds %struct.jpeg_error_mgr, ptr %36, i32 0, i32 5
  store i32 14, ptr %37, align 8
  %38 = load i32, ptr %5, align 4
  %39 = load ptr, ptr %4, align 8
  %40 = getelementptr inbounds %struct.jpeg_common_struct, ptr %39, i32 0, i32 0
  %41 = load ptr, ptr %40, align 8
  %42 = getelementptr inbounds %struct.jpeg_error_mgr, ptr %41, i32 0, i32 6
  %43 = getelementptr inbounds [8 x i32], ptr %42, i64 0, i64 0
  store i32 %38, ptr %43, align 4
  %44 = load ptr, ptr %4, align 8
  %45 = getelementptr inbounds %struct.jpeg_common_struct, ptr %44, i32 0, i32 0
  %46 = load ptr, ptr %45, align 8
  %47 = getelementptr inbounds %struct.jpeg_error_mgr, ptr %46, i32 0, i32 0
  %48 = load ptr, ptr %47, align 8
  %49 = load ptr, ptr %4, align 8
  call void %48(ptr noundef %49)
  br label %50

50:                                               ; preds = %33, %30
  %51 = load ptr, ptr %4, align 8
  %52 = load i64, ptr %6, align 8
  %53 = add i64 %52, 24
  %54 = call ptr @jGetLarge(ptr noundef %51, i64 noundef %53)
  store ptr %54, ptr %8, align 8
  %55 = load ptr, ptr %8, align 8
  %56 = icmp eq ptr %55, null
  br i1 %56, label %57, label %59

57:                                               ; preds = %50
  %58 = load ptr, ptr %4, align 8
  call void @out_of_memory(ptr noundef %58, i32 noundef 4)
  br label %59

59:                                               ; preds = %57, %50
  %60 = load i64, ptr %6, align 8
  %61 = add i64 %60, 24
  %62 = load ptr, ptr %7, align 8
  %63 = getelementptr inbounds %struct.my_memory_mgr, ptr %62, i32 0, i32 5
  %64 = load i64, ptr %63, align 8
  %65 = add i64 %64, %61
  store i64 %65, ptr %63, align 8
  %66 = load ptr, ptr %7, align 8
  %67 = getelementptr inbounds %struct.my_memory_mgr, ptr %66, i32 0, i32 2
  %68 = load i32, ptr %5, align 4
  %69 = sext i32 %68 to i64
  %70 = getelementptr inbounds [2 x ptr], ptr %67, i64 0, i64 %69
  %71 = load ptr, ptr %70, align 8
  %72 = load ptr, ptr %8, align 8
  %73 = getelementptr inbounds %struct.anon.0, ptr %72, i32 0, i32 0
  store ptr %71, ptr %73, align 8
  %74 = load i64, ptr %6, align 8
  %75 = load ptr, ptr %8, align 8
  %76 = getelementptr inbounds %struct.anon.0, ptr %75, i32 0, i32 1
  store i64 %74, ptr %76, align 8
  %77 = load ptr, ptr %8, align 8
  %78 = getelementptr inbounds %struct.anon.0, ptr %77, i32 0, i32 2
  store i64 0, ptr %78, align 8
  %79 = load ptr, ptr %8, align 8
  %80 = load ptr, ptr %7, align 8
  %81 = getelementptr inbounds %struct.my_memory_mgr, ptr %80, i32 0, i32 2
  %82 = load i32, ptr %5, align 4
  %83 = sext i32 %82 to i64
  %84 = getelementptr inbounds [2 x ptr], ptr %81, i64 0, i64 %83
  store ptr %79, ptr %84, align 8
  %85 = load ptr, ptr %8, align 8
  %86 = getelementptr inbounds %union.large_pool_struct, ptr %85, i64 1
  ret ptr %86
}

; Function Attrs: nounwind uwtable
define internal ptr @alloc_barray(ptr noundef %0, i32 noundef %1, i32 noundef %2, i32 noundef %3) #0 {
  %5 = alloca ptr, align 8
  %6 = alloca i32, align 4
  %7 = alloca i32, align 4
  %8 = alloca i32, align 4
  %9 = alloca ptr, align 8
  %10 = alloca ptr, align 8
  %11 = alloca ptr, align 8
  %12 = alloca i32, align 4
  %13 = alloca i32, align 4
  %14 = alloca i32, align 4
  %15 = alloca i64, align 8
  store ptr %0, ptr %5, align 8
  store i32 %1, ptr %6, align 4
  store i32 %2, ptr %7, align 4
  store i32 %3, ptr %8, align 4
  %16 = load ptr, ptr %5, align 8
  %17 = getelementptr inbounds %struct.jpeg_common_struct, ptr %16, i32 0, i32 1
  %18 = load ptr, ptr %17, align 8
  store ptr %18, ptr %9, align 8
  %19 = load i32, ptr %7, align 4
  %20 = icmp eq i32 %19, 0
  br i1 %20, label %21, label %32

21:                                               ; preds = %4
  %22 = load ptr, ptr %5, align 8
  %23 = getelementptr inbounds %struct.jpeg_common_struct, ptr %22, i32 0, i32 0
  %24 = load ptr, ptr %23, align 8
  %25 = getelementptr inbounds %struct.jpeg_error_mgr, ptr %24, i32 0, i32 5
  store i32 70, ptr %25, align 8
  %26 = load ptr, ptr %5, align 8
  %27 = getelementptr inbounds %struct.jpeg_common_struct, ptr %26, i32 0, i32 0
  %28 = load ptr, ptr %27, align 8
  %29 = getelementptr inbounds %struct.jpeg_error_mgr, ptr %28, i32 0, i32 0
  %30 = load ptr, ptr %29, align 8
  %31 = load ptr, ptr %5, align 8
  call void %30(ptr noundef %31)
  br label %32

32:                                               ; preds = %21, %4
  %33 = load i32, ptr %7, align 4
  %34 = zext i32 %33 to i64
  %35 = mul i64 %34, 128
  %36 = udiv i64 999999976, %35
  store i64 %36, ptr %15, align 8
  %37 = load i64, ptr %15, align 8
  %38 = icmp sle i64 %37, 0
  br i1 %38, label %39, label %50

39:                                               ; preds = %32
  %40 = load ptr, ptr %5, align 8
  %41 = getelementptr inbounds %struct.jpeg_common_struct, ptr %40, i32 0, i32 0
  %42 = load ptr, ptr %41, align 8
  %43 = getelementptr inbounds %struct.jpeg_error_mgr, ptr %42, i32 0, i32 5
  store i32 70, ptr %43, align 8
  %44 = load ptr, ptr %5, align 8
  %45 = getelementptr inbounds %struct.jpeg_common_struct, ptr %44, i32 0, i32 0
  %46 = load ptr, ptr %45, align 8
  %47 = getelementptr inbounds %struct.jpeg_error_mgr, ptr %46, i32 0, i32 0
  %48 = load ptr, ptr %47, align 8
  %49 = load ptr, ptr %5, align 8
  call void %48(ptr noundef %49)
  br label %50

50:                                               ; preds = %39, %32
  %51 = load i64, ptr %15, align 8
  %52 = load i32, ptr %8, align 4
  %53 = zext i32 %52 to i64
  %54 = icmp slt i64 %51, %53
  br i1 %54, label %55, label %58

55:                                               ; preds = %50
  %56 = load i64, ptr %15, align 8
  %57 = trunc i64 %56 to i32
  store i32 %57, ptr %12, align 4
  br label %60

58:                                               ; preds = %50
  %59 = load i32, ptr %8, align 4
  store i32 %59, ptr %12, align 4
  br label %60

60:                                               ; preds = %58, %55
  %61 = load i32, ptr %12, align 4
  %62 = load ptr, ptr %9, align 8
  %63 = getelementptr inbounds %struct.my_memory_mgr, ptr %62, i32 0, i32 6
  store i32 %61, ptr %63, align 8
  %64 = load ptr, ptr %5, align 8
  %65 = load i32, ptr %6, align 4
  %66 = load i32, ptr %8, align 4
  %67 = zext i32 %66 to i64
  %68 = mul i64 %67, 8
  %69 = call ptr @alloc_small(ptr noundef %64, i32 noundef %65, i64 noundef %68)
  store ptr %69, ptr %10, align 8
  store i32 0, ptr %13, align 4
  br label %70

70:                                               ; preds = %115, %60
  %71 = load i32, ptr %13, align 4
  %72 = load i32, ptr %8, align 4
  %73 = icmp ult i32 %71, %72
  br i1 %73, label %74, label %116

74:                                               ; preds = %70
  %75 = load i32, ptr %12, align 4
  %76 = load i32, ptr %8, align 4
  %77 = load i32, ptr %13, align 4
  %78 = sub i32 %76, %77
  %79 = icmp ult i32 %75, %78
  br i1 %79, label %80, label %82

80:                                               ; preds = %74
  %81 = load i32, ptr %12, align 4
  br label %86

82:                                               ; preds = %74
  %83 = load i32, ptr %8, align 4
  %84 = load i32, ptr %13, align 4
  %85 = sub i32 %83, %84
  br label %86

86:                                               ; preds = %82, %80
  %87 = phi i32 [ %81, %80 ], [ %85, %82 ]
  store i32 %87, ptr %12, align 4
  %88 = load ptr, ptr %5, align 8
  %89 = load i32, ptr %6, align 4
  %90 = load i32, ptr %12, align 4
  %91 = zext i32 %90 to i64
  %92 = load i32, ptr %7, align 4
  %93 = zext i32 %92 to i64
  %94 = mul i64 %91, %93
  %95 = mul i64 %94, 128
  %96 = call ptr @alloc_large(ptr noundef %88, i32 noundef %89, i64 noundef %95)
  store ptr %96, ptr %11, align 8
  %97 = load i32, ptr %12, align 4
  store i32 %97, ptr %14, align 4
  br label %98

98:                                               ; preds = %112, %86
  %99 = load i32, ptr %14, align 4
  %100 = icmp ugt i32 %99, 0
  br i1 %100, label %101, label %115

101:                                              ; preds = %98
  %102 = load ptr, ptr %11, align 8
  %103 = load ptr, ptr %10, align 8
  %104 = load i32, ptr %13, align 4
  %105 = add i32 %104, 1
  store i32 %105, ptr %13, align 4
  %106 = zext i32 %104 to i64
  %107 = getelementptr inbounds ptr, ptr %103, i64 %106
  store ptr %102, ptr %107, align 8
  %108 = load i32, ptr %7, align 4
  %109 = load ptr, ptr %11, align 8
  %110 = zext i32 %108 to i64
  %111 = getelementptr inbounds [64 x i16], ptr %109, i64 %110
  store ptr %111, ptr %11, align 8
  br label %112

112:                                              ; preds = %101
  %113 = load i32, ptr %14, align 4
  %114 = add i32 %113, -1
  store i32 %114, ptr %14, align 4
  br label %98, !llvm.loop !11

115:                                              ; preds = %98
  br label %70, !llvm.loop !12

116:                                              ; preds = %70
  %117 = load ptr, ptr %10, align 8
  ret ptr %117
}