; Function Attrs: nounwind uwtable
define internal ptr @alloc_barray(ptr noundef %0, i32 noundef %1, i32 noundef %2, i32 noundef %3) #0 {
  %5 = getelementptr inbounds i8, ptr %0, i64 8
  %6 = load ptr, ptr %5, align 8
  %7 = icmp eq i32 %2, 0
  br i1 %7, label %.sink.split, label %8

8:                                                ; preds = %4
  %9 = zext i32 %2 to i64
  %10 = shl nuw nsw i64 %9, 7
  %11 = udiv i64 999999976, %10
  %12 = icmp ugt i32 %2, 7812499
  br i1 %12, label %.sink.split, label %17

.sink.split:                                      ; preds = %8, %4
  %.ph = phi i64 [ poison, %4 ], [ %11, %8 ]
  %.ph53 = phi i64 [ 0, %4 ], [ %9, %8 ]
  %13 = load ptr, ptr %0, align 8
  %14 = getelementptr inbounds i8, ptr %13, i64 40
  store i32 70, ptr %14, align 8
  %15 = load ptr, ptr %0, align 8
  %16 = load ptr, ptr %15, align 8
  tail call void %16(ptr noundef nonnull %0) #6
  br label %17

17:                                               ; preds = %.sink.split, %8
  %18 = phi i64 [ %11, %8 ], [ %.ph, %.sink.split ]
  %19 = phi i64 [ %9, %8 ], [ %.ph53, %.sink.split ]
  %20 = zext i32 %3 to i64
  %21 = icmp ult i64 %18, %20
  %22 = trunc nuw nsw i64 %18 to i32
  %.041 = select i1 %21, i32 %22, i32 %3
  %23 = getelementptr inbounds i8, ptr %6, i64 160
  store i32 %.041, ptr %23, align 8
  %24 = shl nuw nsw i64 %20, 3
  %25 = tail call ptr @alloc_small(ptr noundef nonnull %0, i32 noundef %1, i64 noundef %24)
  %.not52 = icmp eq i32 %3, 0
  br i1 %.not52, label %._crit_edge, label %.lr.ph51

.lr.ph51:                                         ; preds = %17
  %26 = shl nuw nsw i64 %19, 7
  %or.cond.i = icmp ugt i32 %1, 1
  %27 = sext i32 %1 to i64
  br label %29

.loopexit:                                        ; preds = %.lr.ph, %alloc_large.exit
  %.1.lcssa = phi i32 [ %.04050, %alloc_large.exit ], [ %71, %.lr.ph ]
  %28 = icmp ult i32 %.1.lcssa, %3
  br i1 %28, label %29, label %._crit_edge, !llvm.loop !10

29:                                               ; preds = %.lr.ph51, %.loopexit
  %.04050 = phi i32 [ 0, %.lr.ph51 ], [ %.1.lcssa, %.loopexit ]
  %.14249 = phi i32 [ %.041, %.lr.ph51 ], [ %31, %.loopexit ]
  %30 = sub i32 %3, %.04050
  %31 = tail call i32 @llvm.umin.i32(i32 %.14249, i32 %30)
  %32 = zext i32 %31 to i64
  %33 = mul i64 %26, %32
  %34 = load ptr, ptr %5, align 8
  %35 = icmp ugt i64 %33, 999999976
  br i1 %35, label %36, label %43

36:                                               ; preds = %29
  %37 = load ptr, ptr %0, align 8
  %38 = getelementptr inbounds i8, ptr %37, i64 40
  store i32 54, ptr %38, align 8
  %39 = load ptr, ptr %0, align 8
  %40 = getelementptr inbounds i8, ptr %39, i64 44
  store i32 3, ptr %40, align 4
  %41 = load ptr, ptr %0, align 8
  %42 = load ptr, ptr %41, align 8
  tail call void %42(ptr noundef nonnull %0) #6
  br label %43

43:                                               ; preds = %36, %29
  br i1 %or.cond.i, label %44, label %51

44:                                               ; preds = %43
  %45 = load ptr, ptr %0, align 8
  %46 = getelementptr inbounds i8, ptr %45, i64 40
  store i32 14, ptr %46, align 8
  %47 = load ptr, ptr %0, align 8
  %48 = getelementptr inbounds i8, ptr %47, i64 44
  store i32 %1, ptr %48, align 4
  %49 = load ptr, ptr %0, align 8
  %50 = load ptr, ptr %49, align 8
  tail call void %50(ptr noundef nonnull %0) #6
  br label %51

51:                                               ; preds = %44, %43
  %52 = or disjoint i64 %33, 24
  %53 = tail call ptr @jGetLarge(ptr noundef nonnull %0, i64 noundef %52) #6
  %54 = icmp eq ptr %53, null
  br i1 %54, label %55, label %alloc_large.exit

55:                                               ; preds = %51
  %56 = load ptr, ptr %0, align 8
  %57 = getelementptr inbounds i8, ptr %56, i64 40
  store i32 54, ptr %57, align 8
  %58 = load ptr, ptr %0, align 8
  %59 = getelementptr inbounds i8, ptr %58, i64 44
  store i32 4, ptr %59, align 4
  %60 = load ptr, ptr %0, align 8
  %61 = load ptr, ptr %60, align 8
  tail call void %61(ptr noundef nonnull %0) #6
  br label %alloc_large.exit

alloc_large.exit:                                 ; preds = %51, %55
  %62 = getelementptr inbounds i8, ptr %34, i64 152
  %63 = load i64, ptr %62, align 8
  %64 = add i64 %63, %52
  store i64 %64, ptr %62, align 8
  %65 = getelementptr inbounds i8, ptr %34, i64 120
  %66 = getelementptr inbounds [2 x ptr], ptr %65, i64 0, i64 %27
  %67 = load ptr, ptr %66, align 8
  store ptr %67, ptr %53, align 8
  %68 = getelementptr inbounds i8, ptr %53, i64 8
  store i64 %33, ptr %68, align 8
  %69 = getelementptr inbounds i8, ptr %53, i64 16
  store i64 0, ptr %69, align 8
  store ptr %53, ptr %66, align 8
  %.not45 = icmp eq i32 %31, 0
  br i1 %.not45, label %.loopexit, label %.lr.ph.preheader

.lr.ph.preheader:                                 ; preds = %alloc_large.exit
  %70 = getelementptr inbounds i8, ptr %53, i64 24
  br label %.lr.ph

.lr.ph:                                           ; preds = %.lr.ph.preheader, %.lr.ph
  %.048 = phi ptr [ %74, %.lr.ph ], [ %70, %.lr.ph.preheader ]
  %.03947 = phi i32 [ %75, %.lr.ph ], [ %31, %.lr.ph.preheader ]
  %.146 = phi i32 [ %71, %.lr.ph ], [ %.04050, %.lr.ph.preheader ]
  %71 = add i32 %.146, 1
  %72 = zext i32 %.146 to i64
  %73 = getelementptr inbounds ptr, ptr %25, i64 %72
  store ptr %.048, ptr %73, align 8
  %74 = getelementptr inbounds [64 x i16], ptr %.048, i64 %19
  %75 = add i32 %.03947, -1
  %.not = icmp eq i32 %75, 0
  br i1 %.not, label %.loopexit, label %.lr.ph, !llvm.loop !11

._crit_edge:                                      ; preds = %.loopexit, %17
  ret ptr %25
}